; Function Attrs: mustprogress uwtable
define dso_local noundef zeroext i1 @_ZN4Json9OurReader12decodeStringERNS0_5TokenE(ptr noundef nonnull align 8 dereferenceable(297) %0, ptr nocapture noundef nonnull readonly align 8 dereferenceable(24) %1) local_unnamed_addr #6 align 2 personality ptr @__gxx_personality_v0 {
  %3 = alloca %"class.std::__cxx11::basic_string", align 8
  %4 = alloca %"class.Json::Value", align 8
  call void @_ZNSt7__cxx1112basic_stringIcSt11char_traitsIcESaIcEEC1Ev(ptr noundef nonnull align 8 dereferenceable(32) %3) #25
  %5 = invoke noundef zeroext i1 @_ZN4Json9OurReader12decodeStringERNS0_5TokenERNSt7__cxx1112basic_stringIcSt11char_traitsIcESaIcEEE(ptr noundef nonnull align 8 dereferenceable(297) %0, ptr noundef nonnull align 8 dereferenceable(24) %1, ptr noundef nonnull align 8 dereferenceable(32) %3)
          to label %6 unwind label %7

6:                                                ; preds = %2
  br i1 %5, label %9, label %70

7:                                                ; preds = %9, %2
  %8 = landingpad { ptr, i32 }
          cleanup
  br label %71

9:                                                ; preds = %6
  invoke void @_ZN4Json5ValueC1ERKNSt7__cxx1112basic_stringIcSt11char_traitsIcESaIcEEE(ptr noundef nonnull align 8 dereferenceable(40) %4, ptr noundef nonnull align 8 dereferenceable(32) %3)
          to label %10 unwind label %7

10:                                               ; preds = %9
  %11 = getelementptr inbounds i8, ptr %0, i64 48
  %12 = load ptr, ptr %11, align 8, !noalias !283
  %13 = getelementptr inbounds i8, ptr %0, i64 56
  %14 = load ptr, ptr %13, align 8, !noalias !283
  %15 = icmp eq ptr %12, %14
  br i1 %15, label %16, label %22

16:                                               ; preds = %10
  %17 = getelementptr inbounds i8, ptr %0, i64 72
  %18 = load ptr, ptr %17, align 8, !noalias !283
  %19 = getelementptr inbounds i8, ptr %18, i64 -8
  %20 = load ptr, ptr %19, align 8
  %21 = getelementptr inbounds i8, ptr %20, i64 512
  br label %22

22:                                               ; preds = %16, %10
  %23 = phi ptr [ %21, %16 ], [ %12, %10 ]
  %24 = getelementptr inbounds i8, ptr %23, i64 -8
  %25 = load ptr, ptr %24, align 8
  invoke void @_ZN4Json5Value11swapPayloadERS0_(ptr noundef nonnull align 8 dereferenceable(40) %25, ptr noundef nonnull align 8 dereferenceable(40) %4)
          to label %26 unwind label %68

26:                                               ; preds = %22
  %27 = load ptr, ptr %11, align 8, !noalias !286
  %28 = load ptr, ptr %13, align 8, !noalias !286
  %29 = icmp eq ptr %27, %28
  br i1 %29, label %30, label %36

30:                                               ; preds = %26
  %31 = getelementptr inbounds i8, ptr %0, i64 72
  %32 = load ptr, ptr %31, align 8, !noalias !286
  %33 = getelementptr inbounds i8, ptr %32, i64 -8
  %34 = load ptr, ptr %33, align 8
  %35 = getelementptr inbounds i8, ptr %34, i64 512
  br label %36

36:                                               ; preds = %30, %26
  %37 = phi ptr [ %35, %30 ], [ %27, %26 ]
  %38 = getelementptr inbounds i8, ptr %37, i64 -8
  %39 = load ptr, ptr %38, align 8
  %40 = getelementptr inbounds i8, ptr %1, i64 8
  %41 = load ptr, ptr %40, align 8
  %42 = getelementptr inbounds i8, ptr %0, i64 192
  %43 = load ptr, ptr %42, align 8
  %44 = ptrtoint ptr %41 to i64
  %45 = ptrtoint ptr %43 to i64
  %46 = sub i64 %44, %45
  invoke void @_ZN4Json5Value14setOffsetStartEl(ptr noundef nonnull align 8 dereferenceable(40) %39, i64 noundef %46)
          to label %47 unwind label %68

47:                                               ; preds = %36
  %48 = load ptr, ptr %11, align 8, !noalias !289
  %49 = load ptr, ptr %13, align 8, !noalias !289
  %50 = icmp eq ptr %48, %49
  br i1 %50, label %51, label %57

51:                                               ; preds = %47
  %52 = getelementptr inbounds i8, ptr %0, i64 72
  %53 = load ptr, ptr %52, align 8, !noalias !289
  %54 = getelementptr inbounds i8, ptr %53, i64 -8
  %55 = load ptr, ptr %54, align 8
  %56 = getelementptr inbounds i8, ptr %55, i64 512
  br label %57

57:                                               ; preds = %51, %47
  %58 = phi ptr [ %56, %51 ], [ %48, %47 ]
  %59 = getelementptr inbounds i8, ptr %58, i64 -8
  %60 = load ptr, ptr %59, align 8
  %61 = getelementptr inbounds i8, ptr %1, i64 16
  %62 = load ptr, ptr %61, align 8
  %63 = load ptr, ptr %42, align 8
  %64 = ptrtoint ptr %62 to i64
  %65 = ptrtoint ptr %63 to i64
  %66 = sub i64 %64, %65
  invoke void @_ZN4Json5Value14setOffsetLimitEl(ptr noundef nonnull align 8 dereferenceable(40) %60, i64 noundef %66)
          to label %67 unwind label %68

67:                                               ; preds = %57
  call void @_ZN4Json5ValueD1Ev(ptr noundef nonnull align 8 dereferenceable(40) %4) #25
  br label %70

68:                                               ; preds = %57, %36, %22
  %69 = landingpad { ptr, i32 }
          cleanup
  call void @_ZN4Json5ValueD1Ev(ptr noundef nonnull align 8 dereferenceable(40) %4) #25
  br label %71

70:                                               ; preds = %6, %67
  call void @_ZNSt7__cxx1112basic_stringIcSt11char_traitsIcESaIcEED1Ev(ptr noundef nonnull align 8 dereferenceable(32) %3) #25
  ret i1 %5

71:                                               ; preds = %68, %7
  %.pn = phi { ptr, i32 } [ %69, %68 ], [ %8, %7 ]
  call void @_ZNSt7__cxx1112basic_stringIcSt11char_traitsIcESaIcEED1Ev(ptr noundef nonnull align 8 dereferenceable(32) %3) #25
  resume { ptr, i32 } %.pn
}